; Function Attrs: nounwind uwtable
define hidden range(i32 0, 43) i32 @Curl_updatesocket(ptr noundef %0) local_unnamed_addr #0 {
  %2 = alloca %struct.easy_pollset, align 4
  %3 = getelementptr inbounds nuw i8, ptr %0, i64 208
  %4 = load ptr, ptr %3, align 8, !tbaa !92
  call void @llvm.lifetime.start.p0(i64 32, ptr nonnull %2) #19
  call fastcc void @multi_getsock(ptr noundef %0, ptr noundef nonnull %2)
  %5 = getelementptr inbounds nuw i8, ptr %0, i64 160
  %6 = call i32 @Curl_multi_pollset_ev(ptr noundef %4, ptr noundef %0, ptr noundef nonnull %2, ptr noundef nonnull %5)
  %.not.i = icmp eq i32 %6, 0
  br i1 %.not.i, label %7, label %singlesocket.exit

7:                                                ; preds = %1
  call void @llvm.memcpy.p0.p0.i64(ptr noundef nonnull align 8 dereferenceable(32) %5, ptr noundef nonnull align 4 dereferenceable(32) %2, i64 32, i1 false)
  br label %singlesocket.exit

singlesocket.exit:                                ; preds = %1, %7
  %. = phi i32 [ 42, %1 ], [ 0, %7 ]
  call void @llvm.lifetime.end.p0(i64 32, ptr nonnull %2) #19
  ret i32 %.
}